
hello.hex:     file format ihex


Disassembly of section .sec1:

0000000020010000 <.sec1>:
    20010000:	9711ff5f          	auipc	gp,0x5fff1
    20010004:	93810180          	addi	gp,gp,-2048 # 0x80000800
    20010008:	97020000          	auipc	t0,0x0
    2001000c:	93820202          	addi	t0,t0,32 # 0x20010028
    20010010:	73905230          	csrw	mtvec,t0
    20010014:	138111c0          	addi	sp,gp,-1023
    20010018:	137101ff          	andi	sp,sp,-16
    2001001c:	732540f1          	csrr	a0,mhartid
    20010020:	01e1                	bnez	a0,0x20010020
    20010022:	5120                	jal	0x200100a6
    20010024:	3120                	jal	0x20010030
    20010026:	01a0                	j	0x20010026
    20010028:	01a0                	j	0x20010028

Disassembly of section .sec2:

000000002001002c <.sec2>:
    2001002c:	9000                	addi	a2,sp,64
    2001002e:	0120                	jal	0x2001002e
    20010030:	4111                	addi	sp,sp,-16
    20010032:	a3060100          	sb	zero,13(sp)
    20010036:	b7370110          	lui	a5,0x10013
    2001003a:	2945                	li	a0,10
    2001003c:	3548                	li	a6,13
    2001003e:	d843                	lw	a4,4(a5)
    20010040:	e34f07fe          	bltz	a4,0x2001003e
    20010044:	9376f70f          	andi	a3,a4,255
    20010048:	2306d100          	sb	a3,12(sp)
    2001004c:	1376f70f          	andi	a2,a4,255
    20010050:	91ce                	beqz	a3,0x2001006c
    20010052:	7800                	addi	a4,sp,12
    20010054:	6388a602          	beq	a3,a0,0x20010084
    20010058:	83450700          	lbu	a1,0(a4)
    2001005c:	9443                	lw	a3,0(a5)
    2001005e:	e3cf06fe          	bltz	a3,0x2001005c
    20010062:	8cc3                	sw	a1,0(a5)
    20010064:	0507                	addi	a4,a4,1
    20010066:	83460700          	lbu	a3,0(a4)
    2001006a:	edf6                	bnez	a3,0x20010054
    2001006c:	e31906fd          	bne	a2,a6,0x2001003e
    20010070:	9843                	lw	a4,0(a5)
    20010072:	e34f07fe          	bltz	a4,0x20010070
    20010076:	23a00701          	sw	a6,0(a5) # 0x10013000
    2001007a:	9843                	lw	a4,0(a5)
    2001007c:	e34f07fe          	bltz	a4,0x2001007a
    20010080:	88c3                	sw	a0,0(a5)
    20010082:	75bf                	j	0x2001003e
    20010084:	9443                	lw	a3,0(a5)
    20010086:	e3cf06fe          	bltz	a3,0x20010084
    2001008a:	23a00701          	sw	a6,0(a5)
    2001008e:	e9b7                	j	0x20010058
    20010090:	b7370110          	lui	a5,0x10013
    20010094:	9847                	lw	a4,8(a5)
    20010096:	13671700          	ori	a4,a4,1
    2001009a:	98c7                	sw	a4,8(a5)
    2001009c:	d847                	lw	a4,12(a5)
    2001009e:	13671700          	ori	a4,a4,1
    200100a2:	d8c7                	sw	a4,12(a5)
    200100a4:	8280                	ret
    200100a6:	4111                	addi	sp,sp,-16
    200100a8:	b7070120          	lui	a5,0x20010
    200100ac:	26c2                	sw	s1,4(sp)
    200100ae:	b7040120          	lui	s1,0x20010
    200100b2:	22c4                	sw	s0,8(sp)
    200100b4:	03a4c702          	lw	s0,44(a5) # 0x2001002c
    200100b8:	83a7c402          	lw	a5,44(s1) # 0x2001002c
    200100bc:	06c6                	sw	ra,12(sp)
    200100be:	637af400          	bgeu	s0,a5,0x200100d2
    200100c2:	1104                	addi	s0,s0,4
    200100c4:	8327c4ff          	lw	a5,-4(s0)
    200100c8:	8297                	jalr	a5
    200100ca:	83a7c402          	lw	a5,44(s1)
    200100ce:	e36af4fe          	bltu	s0,a5,0x200100c2
    200100d2:	b240                	lw	ra,12(sp)
    200100d4:	2244                	lw	s0,8(sp)
    200100d6:	9244                	lw	s1,4(sp)
    200100d8:	4101                	addi	sp,sp,16
    200100da:	8280                	ret
    200100dc:	1000                	0x10
    200100de:	0000                	unimp
    200100e0:	0000                	unimp
    200100e2:	0000                	unimp
    200100e4:	017a                	lui	s4,0xfffe0
    200100e6:	5200                	c.slli	zero,0x14
    200100e8:	017c                	lui	s8,0xfffe0
    200100ea:	0101                	addi	sp,sp,0
    200100ec:	1b0d0200          	0x20d1b
    200100f0:	1000                	0x10
    200100f2:	0000                	unimp
    200100f4:	1800                	0x18
    200100f6:	0000                	unimp
    200100f8:	38ff                	fsw	fa4,120(a4)
    200100fa:	ffff                	0xffff
    200100fc:	6000                	addi	s0,sp,12
    200100fe:	0000                	unimp
    20010100:	0042                	lw	s0,0(a2)
    20010102:	0e10                	c.slli	zero,0x23
    20010104:	1000                	0x10
    20010106:	0000                	unimp
    20010108:	2c00                	addi	a1,sp,8
    2001010a:	0000                	unimp
    2001010c:	84ff                	fsw	fs1,56(a5)
    2001010e:	ffff                	0xffff
    20010110:	1600                	c.slli	zero,0x5
    20010112:	0000                	unimp
    20010114:	0000                	unimp
    20010116:	0000                	unimp
    20010118:	2400                	addi	s1,sp,8
    2001011a:	0000                	unimp
    2001011c:	4000                	addi	s0,sp,4
    2001011e:	0000                	unimp
    20010120:	86ff                	fsw	ft1,252(sp)
    20010122:	ffff                	0xffff
    20010124:	3600                	c.slli	zero,0xd
    20010126:	0000                	unimp
    20010128:	0042                	lw	s0,0(a2)
    2001012a:	0e10                	c.slli	zero,0x23
    2001012c:	4689                	mv	s2,a7
    2001012e:	03468802          	lbu	a2,40(a6)
    20010132:	4a81                	mv	sp,s2
    20010134:	0156                	li	a2,-32
    20010136:	c142                	li	t0,16
    20010138:	c842                	lw	a0,4(a3)
    2001013a:	c942                	li	t0,18
    2001013c:	0e00                	c.slli	zero,0x3
	...
